; ModuleID = '7/907.c'
source_filename = "7/907.c"
target datalayout = "e-m:e-p270:32:32-p271:32:32-p272:64:64-i64:64-f80:128-n8:16:32:64-S128"
target triple = "x86_64-pc-linux-gnu"

@.str = private unnamed_addr constant [3 x i8] c"%s\00", align 1

; Function Attrs: noinline nounwind uwtable
define dso_local i32 @main() #0 {
  %1 = alloca i32, align 4
  %2 = alloca [260 x i8], align 16
  %3 = alloca [260 x i8], align 16
  %4 = alloca [260 x i8], align 16
  %5 = alloca [260 x i8], align 16
  %6 = alloca i32, align 4
  %7 = alloca i32, align 4
  %8 = alloca i32, align 4
  %9 = alloca i32, align 4
  %10 = alloca i32, align 4
  %11 = alloca i32, align 4
  %12 = alloca i32, align 4
  %13 = alloca i32, align 4
  %14 = alloca i32, align 4
  store i32 0, i32* %1, align 4
  %15 = getelementptr inbounds [260 x i8], [260 x i8]* %2, i64 0, i64 0
  %16 = call i32 (i8*, ...) bitcast (i32 (...)* @gets to i32 (i8*, ...)*)(i8* %15)
  %17 = getelementptr inbounds [260 x i8], [260 x i8]* %3, i64 0, i64 0
  %18 = call i32 (i8*, ...) bitcast (i32 (...)* @gets to i32 (i8*, ...)*)(i8* %17)
  %19 = getelementptr inbounds [260 x i8], [260 x i8]* %4, i64 0, i64 0
  %20 = call i32 (i8*, ...) bitcast (i32 (...)* @gets to i32 (i8*, ...)*)(i8* %19)
  %21 = getelementptr inbounds [260 x i8], [260 x i8]* %2, i64 0, i64 0
  %22 = call i64 @strlen(i8* %21) #3
  %23 = trunc i64 %22 to i32
  store i32 %23, i32* %11, align 4
  %24 = getelementptr inbounds [260 x i8], [260 x i8]* %3, i64 0, i64 0
  %25 = call i64 @strlen(i8* %24) #3
  %26 = trunc i64 %25 to i32
  store i32 %26, i32* %12, align 4
  %27 = getelementptr inbounds [260 x i8], [260 x i8]* %4, i64 0, i64 0
  %28 = call i64 @strlen(i8* %27) #3
  %29 = trunc i64 %28 to i32
  store i32 %29, i32* %13, align 4
  store i32 0, i32* %6, align 4
  store i32 0, i32* %10, align 4
  br label %30

30:                                               ; preds = %107, %0
  %31 = load i32, i32* %6, align 4
  %32 = load i32, i32* %11, align 4
  %33 = icmp slt i32 %31, %32
  br i1 %33, label %34, label %112

34:                                               ; preds = %30
  %35 = load i32, i32* %6, align 4
  %36 = sext i32 %35 to i64
  %37 = getelementptr inbounds [260 x i8], [260 x i8]* %2, i64 0, i64 %36
  %38 = load i8, i8* %37, align 1
  %39 = load i32, i32* %10, align 4
  %40 = sext i32 %39 to i64
  %41 = getelementptr inbounds [260 x i8], [260 x i8]* %5, i64 0, i64 %40
  store i8 %38, i8* %41, align 1
  %42 = load i32, i32* %6, align 4
  %43 = sext i32 %42 to i64
  %44 = getelementptr inbounds [260 x i8], [260 x i8]* %2, i64 0, i64 %43
  %45 = load i8, i8* %44, align 1
  %46 = sext i8 %45 to i32
  %47 = getelementptr inbounds [260 x i8], [260 x i8]* %3, i64 0, i64 0
  %48 = load i8, i8* %47, align 16
  %49 = sext i8 %48 to i32
  %50 = icmp eq i32 %46, %49
  br i1 %50, label %51, label %106

51:                                               ; preds = %34
  store i32 1, i32* %14, align 4
  store i32 0, i32* %7, align 4
  %52 = load i32, i32* %6, align 4
  store i32 %52, i32* %8, align 4
  br label %53

53:                                               ; preds = %71, %51
  %54 = load i32, i32* %7, align 4
  %55 = load i32, i32* %12, align 4
  %56 = icmp slt i32 %54, %55
  br i1 %56, label %57, label %76

57:                                               ; preds = %53
  %58 = load i32, i32* %8, align 4
  %59 = sext i32 %58 to i64
  %60 = getelementptr inbounds [260 x i8], [260 x i8]* %2, i64 0, i64 %59
  %61 = load i8, i8* %60, align 1
  %62 = sext i8 %61 to i32
  %63 = load i32, i32* %7, align 4
  %64 = sext i32 %63 to i64
  %65 = getelementptr inbounds [260 x i8], [260 x i8]* %3, i64 0, i64 %64
  %66 = load i8, i8* %65, align 1
  %67 = sext i8 %66 to i32
  %68 = icmp ne i32 %62, %67
  br i1 %68, label %69, label %70

69:                                               ; preds = %57
  store i32 0, i32* %14, align 4
  br label %76

70:                                               ; preds = %57
  br label %71

71:                                               ; preds = %70
  %72 = load i32, i32* %7, align 4
  %73 = add nsw i32 %72, 1
  store i32 %73, i32* %7, align 4
  %74 = load i32, i32* %8, align 4
  %75 = add nsw i32 %74, 1
  store i32 %75, i32* %8, align 4
  br label %53

76:                                               ; preds = %69, %53
  %77 = load i32, i32* %14, align 4
  %78 = icmp ne i32 %77, 0
  br i1 %78, label %79, label %105

79:                                               ; preds = %76
  store i32 0, i32* %9, align 4
  br label %80

80:                                               ; preds = %92, %79
  %81 = load i32, i32* %9, align 4
  %82 = load i32, i32* %13, align 4
  %83 = icmp slt i32 %81, %82
  br i1 %83, label %84, label %97

84:                                               ; preds = %80
  %85 = load i32, i32* %9, align 4
  %86 = sext i32 %85 to i64
  %87 = getelementptr inbounds [260 x i8], [260 x i8]* %4, i64 0, i64 %86
  %88 = load i8, i8* %87, align 1
  %89 = load i32, i32* %10, align 4
  %90 = sext i32 %89 to i64
  %91 = getelementptr inbounds [260 x i8], [260 x i8]* %5, i64 0, i64 %90
  store i8 %88, i8* %91, align 1
  br label %92

92:                                               ; preds = %84
  %93 = load i32, i32* %9, align 4
  %94 = add nsw i32 %93, 1
  store i32 %94, i32* %9, align 4
  %95 = load i32, i32* %10, align 4
  %96 = add nsw i32 %95, 1
  store i32 %96, i32* %10, align 4
  br label %80

97:                                               ; preds = %80
  %98 = load i32, i32* %10, align 4
  %99 = add nsw i32 %98, -1
  store i32 %99, i32* %10, align 4
  %100 = load i32, i32* %6, align 4
  %101 = load i32, i32* %12, align 4
  %102 = add nsw i32 %100, %101
  %103 = sub nsw i32 %102, 1
  store i32 %103, i32* %6, align 4
  %104 = getelementptr inbounds [260 x i8], [260 x i8]* %3, i64 0, i64 0
  store i8 46, i8* %104, align 16
  br label %105

105:                                              ; preds = %97, %76
  br label %106

106:                                              ; preds = %105, %34
  br label %107

107:                                              ; preds = %106
  %108 = load i32, i32* %6, align 4
  %109 = add nsw i32 %108, 1
  store i32 %109, i32* %6, align 4
  %110 = load i32, i32* %10, align 4
  %111 = add nsw i32 %110, 1
  store i32 %111, i32* %10, align 4
  br label %30

112:                                              ; preds = %30
  %113 = load i32, i32* %11, align 4
  %114 = load i32, i32* %12, align 4
  %115 = sub nsw i32 %113, %114
  %116 = load i32, i32* %13, align 4
  %117 = add nsw i32 %115, %116
  %118 = sext i32 %117 to i64
  %119 = getelementptr inbounds [260 x i8], [260 x i8]* %5, i64 0, i64 %118
  store i8 0, i8* %119, align 1
  %120 = getelementptr inbounds [260 x i8], [260 x i8]* %5, i64 0, i64 0
  %121 = call i32 (i8*, ...) @printf(i8* getelementptr inbounds ([3 x i8], [3 x i8]* @.str, i64 0, i64 0), i8* %120)
  ret i32 0
}

declare dso_local i32 @gets(...) #1

; Function Attrs: nounwind readonly
declare dso_local i64 @strlen(i8*) #2

declare dso_local i32 @printf(i8*, ...) #1


!llvm.module.flags = !{!0}
!llvm.ident = !{!1}

!0 = !{i32 1, !"wchar_size", i32 4}
!1 = !{!"clang version 10.0.0-4ubuntu1 "}
